target datalayout = "e-m:e-p270:32:32-p271:32:32-p272:64:64-i64:64-i128:128-f80:128-n8:16:32:64-S128"
target triple = "x86_64-pc-linux-gnu"

%"class.datalog::udoc_relation" = type { %"class.datalog::relation_base.base", ptr, %class.union_bvec, %class.svector }
%"class.datalog::relation_base.base" = type { %"class.datalog::tr_infrastructure<datalog::relation_traits>::base_ancestor.base" }
%"class.datalog::tr_infrastructure<datalog::relation_traits>::base_ancestor.base" = type <{ ptr, ptr, %"class.datalog::relation_signature", i32 }>
%"class.datalog::relation_signature" = type { %"class.datalog::tr_infrastructure<datalog::relation_traits>::signature_base" }
%"class.datalog::tr_infrastructure<datalog::relation_traits>::signature_base" = type { %class.ptr_vector }
%class.ptr_vector = type { %class.vector }
%class.vector = type { ptr }
%class.union_bvec = type { %class.buffer }
%class.buffer = type { ptr, i32, i32, [64 x i8] }
%class.svector = type { %class.vector.0 }
%class.vector.0 = type { ptr }

@_ZTIN7datalog13relation_baseE = external constant ptr
@_ZTIN7datalog13udoc_relationE = hidden constant { ptr, ptr, ptr } { ptr getelementptr inbounds (ptr, ptr @_ZTVN10__cxxabiv120__si_class_type_infoE, i64 2), ptr @_ZTSN7datalog13udoc_relationE, ptr @_ZTIN7datalog13relation_baseE }, align 8

; Function Attrs: mustprogress uwtable
define linkonce_odr hidden void @_Z13dealloc_svectIP3docEvPT_(ptr noundef %0) #4 comdat {
  %2 = alloca ptr, align 8
  store ptr %0, ptr %2, align 8, !tbaa !573
  %3 = load ptr, ptr %2, align 8, !tbaa !573
  %4 = icmp eq ptr %3, null
  br i1 %4, label %5, label %6

5:                                                ; preds = %1
  br label %8

6:                                                ; preds = %1
  %7 = load ptr, ptr %2, align 8, !tbaa !573
  call void @_ZN6memory10deallocateEPv(ptr noundef %7)
  br label %8

8:                                                ; preds = %6, %5
  ret void
}

; Function Attrs: mustprogress uwtable
define linkonce_odr hidden void @_ZN6bufferIP3docLb0ELj8EE11free_memoryEv(ptr noundef nonnull align 8 dereferenceable(80) %0) #4 comdat align 2 {
  %2 = alloca ptr, align 8
  store ptr %0, ptr %2, align 8, !tbaa !568
  %3 = load ptr, ptr %2, align 8
  %4 = getelementptr inbounds nuw %class.buffer, ptr %3, i32 0, i32 0
  %5 = load ptr, ptr %4, align 8, !tbaa !570
  %6 = getelementptr inbounds nuw %class.buffer, ptr %3, i32 0, i32 3
  %7 = getelementptr inbounds [64 x i8], ptr %6, i64 0, i64 0
  %8 = icmp ne ptr %5, %7
  br i1 %8, label %9, label %12

9:                                                ; preds = %1
  %10 = getelementptr inbounds nuw %class.buffer, ptr %3, i32 0, i32 0
  %11 = load ptr, ptr %10, align 8, !tbaa !570
  call void @_Z13dealloc_svectIP3docEvPT_(ptr noundef %11)
  br label %12

12:                                               ; preds = %9, %1
  ret void
}

; Function Attrs: mustprogress uwtable
define linkonce_odr hidden void @_ZN6bufferIP3docLb0ELj8EE6expandEv(ptr noundef nonnull align 8 dereferenceable(80) %0) #4 comdat align 2 {
  %2 = alloca ptr, align 8
  %3 = alloca i32, align 4
  %4 = alloca ptr, align 8
  %5 = alloca i32, align 4
  store ptr %0, ptr %2, align 8, !tbaa !568
  %6 = load ptr, ptr %2, align 8
  call void @llvm.lifetime.start.p0(i64 4, ptr %3) #3
  %7 = getelementptr inbounds nuw %class.buffer, ptr %6, i32 0, i32 2
  %8 = load i32, ptr %7, align 4, !tbaa !572
  %9 = shl i32 %8, 1
  store i32 %9, ptr %3, align 4, !tbaa !16
  call void @llvm.lifetime.start.p0(i64 8, ptr %4) #3
  %10 = load i32, ptr %3, align 4, !tbaa !16
  %11 = zext i32 %10 to i64
  %12 = mul i64 8, %11
  %13 = call noalias noundef ptr @_ZN6memory8allocateEm(i64 noundef %12)
  store ptr %13, ptr %4, align 8, !tbaa !573
  call void @llvm.lifetime.start.p0(i64 4, ptr %5) #3
  store i32 0, ptr %5, align 4, !tbaa !16
  br label %14

14:                                               ; preds = %31, %1
  %15 = load i32, ptr %5, align 4, !tbaa !16
  %16 = getelementptr inbounds nuw %class.buffer, ptr %6, i32 0, i32 1
  %17 = load i32, ptr %16, align 8, !tbaa !571
  %18 = icmp ult i32 %15, %17
  br i1 %18, label %20, label %19

19:                                               ; preds = %14
  call void @llvm.lifetime.end.p0(i64 4, ptr %5) #3
  br label %34

20:                                               ; preds = %14
  %21 = load ptr, ptr %4, align 8, !tbaa !573
  %22 = load i32, ptr %5, align 4, !tbaa !16
  %23 = zext i32 %22 to i64
  %24 = getelementptr inbounds nuw ptr, ptr %21, i64 %23
  %25 = getelementptr inbounds nuw %class.buffer, ptr %6, i32 0, i32 0
  %26 = load ptr, ptr %25, align 8, !tbaa !570
  %27 = load i32, ptr %5, align 4, !tbaa !16
  %28 = zext i32 %27 to i64
  %29 = getelementptr inbounds nuw ptr, ptr %26, i64 %28
  %30 = load ptr, ptr %29, align 8, !tbaa !82
  store ptr %30, ptr %24, align 8, !tbaa !82
  br label %31

31:                                               ; preds = %20
  %32 = load i32, ptr %5, align 4, !tbaa !16
  %33 = add i32 %32, 1
  store i32 %33, ptr %5, align 4, !tbaa !16
  br label %14, !llvm.loop !742

34:                                               ; preds = %19
  call void @_ZN6bufferIP3docLb0ELj8EE11free_memoryEv(ptr noundef nonnull align 8 dereferenceable(80) %6)
  %35 = load ptr, ptr %4, align 8, !tbaa !573
  %36 = getelementptr inbounds nuw %class.buffer, ptr %6, i32 0, i32 0
  store ptr %35, ptr %36, align 8, !tbaa !570
  %37 = load i32, ptr %3, align 4, !tbaa !16
  %38 = getelementptr inbounds nuw %class.buffer, ptr %6, i32 0, i32 2
  store i32 %37, ptr %38, align 4, !tbaa !572
  call void @llvm.lifetime.end.p0(i64 8, ptr %4) #3
  call void @llvm.lifetime.end.p0(i64 4, ptr %3) #3
  ret void
}

; Function Attrs: mustprogress nounwind uwtable
define linkonce_odr hidden noundef nonnull align 8 dereferenceable(8) ptr @_ZNK6vectorIP4sortLb0EjEixEj(ptr noundef nonnull align 8 dereferenceable(8) %0, i32 noundef %1) #6 comdat align 2 {
  %3 = alloca ptr, align 8
  %4 = alloca i32, align 4
  store ptr %0, ptr %3, align 8, !tbaa !31
  store i32 %1, ptr %4, align 4, !tbaa !16
  %5 = load ptr, ptr %3, align 8
  %6 = getelementptr inbounds nuw %class.vector, ptr %5, i32 0, i32 0
  %7 = load ptr, ptr %6, align 8, !tbaa !33
  %8 = load i32, ptr %4, align 4, !tbaa !16
  %9 = zext i32 %8 to i64
  %10 = getelementptr inbounds nuw ptr, ptr %7, i64 %9
  ret ptr %10
}

; Function Attrs: mustprogress nounwind uwtable
define linkonce_odr hidden noundef i32 @_ZNK6vectorIP4sortLb0EjE4sizeEv(ptr noundef nonnull align 8 dereferenceable(8) %0) #6 comdat align 2 {
  %2 = alloca i32, align 4
  %3 = alloca ptr, align 8
  store ptr %0, ptr %3, align 8, !tbaa !31
  %4 = load ptr, ptr %3, align 8
  %5 = getelementptr inbounds nuw %class.vector, ptr %4, i32 0, i32 0
  %6 = load ptr, ptr %5, align 8, !tbaa !33
  %7 = icmp eq ptr %6, null
  br i1 %7, label %8, label %9

8:                                                ; preds = %1
  store i32 0, ptr %2, align 4
  br label %14

9:                                                ; preds = %1
  %10 = getelementptr inbounds nuw %class.vector, ptr %4, i32 0, i32 0
  %11 = load ptr, ptr %10, align 8, !tbaa !33
  %12 = getelementptr inbounds i32, ptr %11, i64 -1
  %13 = load i32, ptr %12, align 4, !tbaa !16
  store i32 %13, ptr %2, align 4
  br label %14

14:                                               ; preds = %9, %8
  %15 = load i32, ptr %2, align 4
  ret i32 %15
}

; Function Attrs: mustprogress uwtable
define linkonce_odr hidden void @_ZN6bufferIP3docLb0ELj8EE9push_backERKS1_(ptr noundef nonnull align 8 dereferenceable(80) %0, ptr noundef nonnull align 8 dereferenceable(8) %1) #4 comdat align 2 {
  %3 = alloca ptr, align 8
  %4 = alloca ptr, align 8
  store ptr %0, ptr %3, align 8, !tbaa !568
  store ptr %1, ptr %4, align 8, !tbaa !573
  %5 = load ptr, ptr %3, align 8
  %6 = getelementptr inbounds nuw %class.buffer, ptr %5, i32 0, i32 1
  %7 = load i32, ptr %6, align 8, !tbaa !571
  %8 = getelementptr inbounds nuw %class.buffer, ptr %5, i32 0, i32 2
  %9 = load i32, ptr %8, align 4, !tbaa !572
  %10 = icmp uge i32 %7, %9
  br i1 %10, label %11, label %12

11:                                               ; preds = %2
  call void @_ZN6bufferIP3docLb0ELj8EE6expandEv(ptr noundef nonnull align 8 dereferenceable(80) %5)
  br label %12

12:                                               ; preds = %11, %2
  %13 = getelementptr inbounds nuw %class.buffer, ptr %5, i32 0, i32 0
  %14 = load ptr, ptr %13, align 8, !tbaa !570
  %15 = getelementptr inbounds nuw %class.buffer, ptr %5, i32 0, i32 1
  %16 = load i32, ptr %15, align 8, !tbaa !571
  %17 = zext i32 %16 to i64
  %18 = getelementptr inbounds nuw ptr, ptr %14, i64 %17
  %19 = load ptr, ptr %4, align 8, !tbaa !573
  %20 = load ptr, ptr %19, align 8, !tbaa !82
  store ptr %20, ptr %18, align 8, !tbaa !82
  %21 = getelementptr inbounds nuw %class.buffer, ptr %5, i32 0, i32 1
  %22 = load i32, ptr %21, align 8, !tbaa !571
  %23 = add i32 %22, 1
  store i32 %23, ptr %21, align 8, !tbaa !571
  ret void
}

; Function Attrs: mustprogress uwtable
define hidden noundef i32 @_ZN7datalog11udoc_plugin18num_signature_bitsERKNS_18relation_signatureE(ptr noundef nonnull align 8 dereferenceable(129) %0, ptr noundef nonnull align 8 dereferenceable(8) %1) #4 align 2 {
  %3 = alloca ptr, align 8
  %4 = alloca ptr, align 8
  %5 = alloca i32, align 4
  %6 = alloca i32, align 4
  store ptr %0, ptr %3, align 8, !tbaa !8
  store ptr %1, ptr %4, align 8, !tbaa !10
  %7 = load ptr, ptr %3, align 8
  call void @llvm.lifetime.start.p0(i64 4, ptr %5) #3
  store i32 0, ptr %5, align 4, !tbaa !16
  call void @llvm.lifetime.start.p0(i64 4, ptr %6) #3
  store i32 0, ptr %6, align 4, !tbaa !16
  br label %8

8:                                                ; preds = %22, %2
  %9 = load i32, ptr %6, align 4, !tbaa !16
  %10 = load ptr, ptr %4, align 8, !tbaa !10
  %11 = call noundef i32 @_ZNK6vectorIP4sortLb0EjE4sizeEv(ptr noundef nonnull align 8 dereferenceable(8) %10)
  %12 = icmp ult i32 %9, %11
  br i1 %12, label %14, label %13

13:                                               ; preds = %8
  call void @llvm.lifetime.end.p0(i64 4, ptr %6) #3
  br label %25

14:                                               ; preds = %8
  %15 = load ptr, ptr %4, align 8, !tbaa !10
  %16 = load i32, ptr %6, align 4, !tbaa !16
  %17 = call noundef nonnull align 8 dereferenceable(8) ptr @_ZNK6vectorIP4sortLb0EjEixEj(ptr noundef nonnull align 8 dereferenceable(8) %15, i32 noundef %16)
  %18 = load ptr, ptr %17, align 8, !tbaa !18
  %19 = call noundef i32 @_ZNK7datalog11udoc_plugin13num_sort_bitsEP4sort(ptr noundef nonnull align 8 dereferenceable(129) %7, ptr noundef %18)
  %20 = load i32, ptr %5, align 4, !tbaa !16
  %21 = add i32 %20, %19
  store i32 %21, ptr %5, align 4, !tbaa !16
  br label %22

22:                                               ; preds = %14
  %23 = load i32, ptr %6, align 4, !tbaa !16
  %24 = add i32 %23, 1
  store i32 %24, ptr %6, align 4, !tbaa !16
  br label %8, !llvm.loop !26

25:                                               ; preds = %13
  %26 = load i32, ptr %5, align 4, !tbaa !16
  call void @llvm.lifetime.end.p0(i64 4, ptr %5) #3
  ret i32 %26
}

; Function Attrs: mustprogress uwtable
define linkonce_odr hidden void @_ZN10union_bvecI11doc_manager3docE9push_backEPS1_(ptr noundef nonnull align 8 dereferenceable(80) %0, ptr noundef %1) #4 comdat align 2 {
  %3 = alloca ptr, align 8
  %4 = alloca ptr, align 8
  store ptr %0, ptr %3, align 8, !tbaa !27
  store ptr %1, ptr %4, align 8, !tbaa !82
  %5 = load ptr, ptr %3, align 8
  %6 = getelementptr inbounds nuw %class.union_bvec, ptr %5, i32 0, i32 0
  call void @_ZN6bufferIP3docLb0ELj8EE9push_backERKS1_(ptr noundef nonnull align 8 dereferenceable(80) %6, ptr noundef nonnull align 8 dereferenceable(8) %4)
  ret void
}

; Function Attrs: mustprogress uwtable
define hidden noundef nonnull align 8 dereferenceable(1080) ptr @_ZN7datalog11udoc_plugin2dmERKNS_18relation_signatureE(ptr noundef nonnull align 8 dereferenceable(129) %0, ptr noundef nonnull align 8 dereferenceable(8) %1) #4 align 2 {
  %3 = alloca ptr, align 8
  %4 = alloca ptr, align 8
  store ptr %0, ptr %3, align 8, !tbaa !8
  store ptr %1, ptr %4, align 8, !tbaa !10
  %5 = load ptr, ptr %3, align 8
  %6 = load ptr, ptr %4, align 8, !tbaa !10
  %7 = call noundef i32 @_ZN7datalog11udoc_plugin18num_signature_bitsERKNS_18relation_signatureE(ptr noundef nonnull align 8 dereferenceable(129) %5, ptr noundef nonnull align 8 dereferenceable(8) %6)
  %8 = call noundef nonnull align 8 dereferenceable(1080) ptr @_ZN7datalog11udoc_plugin2dmEj(ptr noundef nonnull align 8 dereferenceable(129) %5, i32 noundef %7)
  ret ptr %8
}

; Function Attrs: mustprogress nounwind uwtable
define linkonce_odr hidden noundef nonnull align 8 dereferenceable(80) ptr @_ZN7datalog13udoc_relation8get_udocEv(ptr noundef nonnull align 8 dereferenceable(128) %0) #6 comdat align 2 {
  %2 = alloca ptr, align 8
  store ptr %0, ptr %2, align 8, !tbaa !3
  %3 = load ptr, ptr %2, align 8
  %4 = getelementptr inbounds nuw %"class.datalog::udoc_relation", ptr %3, i32 0, i32 2
  ret ptr %4
}

; Function Attrs: mustprogress nounwind uwtable
define hidden noundef ptr @_ZN7datalog11udoc_plugin3getEPNS_13relation_baseE(ptr noundef %0) #6 align 2 {
  %2 = alloca ptr, align 8
  store ptr %0, ptr %2, align 8, !tbaa !22
  %3 = load ptr, ptr %2, align 8, !tbaa !22
  %4 = icmp ne ptr %3, null
  br i1 %4, label %5, label %13

5:                                                ; preds = %1
  %6 = load ptr, ptr %2, align 8, !tbaa !22
  %7 = icmp eq ptr %6, null
  br i1 %7, label %10, label %8

8:                                                ; preds = %5
  %9 = call ptr @__dynamic_cast(ptr %6, ptr @_ZTIN7datalog13relation_baseE, ptr @_ZTIN7datalog13udoc_relationE, i64 0) #3
  br label %11

10:                                               ; preds = %5
  br label %11

11:                                               ; preds = %10, %8
  %12 = phi ptr [ %9, %8 ], [ null, %10 ]
  br label %14

13:                                               ; preds = %1
  br label %14

14:                                               ; preds = %13, %11
  %15 = phi ptr [ %12, %11 ], [ null, %13 ]
  ret ptr %15
}

; Function Attrs: mustprogress uwtable
define hidden noundef ptr @_ZN7datalog11udoc_plugin7mk_fullEP9func_declRKNS_18relation_signatureE(ptr noundef nonnull align 8 dereferenceable(129) %0, ptr noundef %1, ptr noundef nonnull align 8 dereferenceable(8) %2) unnamed_addr #4 align 2 {
  %4 = alloca ptr, align 8
  %5 = alloca ptr, align 8
  %6 = alloca ptr, align 8
  %7 = alloca ptr, align 8
  store ptr %0, ptr %4, align 8, !tbaa !8
  store ptr %1, ptr %5, align 8, !tbaa !118
  store ptr %2, ptr %6, align 8, !tbaa !10
  %8 = load ptr, ptr %4, align 8
  call void @llvm.lifetime.start.p0(i64 8, ptr %7) #3
  %9 = load ptr, ptr %6, align 8, !tbaa !10
  %10 = load ptr, ptr %8, align 8, !tbaa !12
  %11 = getelementptr inbounds ptr, ptr %10, i64 5
  %12 = load ptr, ptr %11, align 8
  %13 = call noundef ptr %12(ptr noundef nonnull align 8 dereferenceable(129) %8, ptr noundef nonnull align 8 dereferenceable(8) %9)
  %14 = call noundef ptr @_ZN7datalog11udoc_plugin3getEPNS_13relation_baseE(ptr noundef %13)
  store ptr %14, ptr %7, align 8, !tbaa !3
  %15 = load ptr, ptr %7, align 8, !tbaa !3
  %16 = call noundef nonnull align 8 dereferenceable(80) ptr @_ZN7datalog13udoc_relation8get_udocEv(ptr noundef nonnull align 8 dereferenceable(128) %15)
  %17 = load ptr, ptr %6, align 8, !tbaa !10
  %18 = call noundef nonnull align 8 dereferenceable(1080) ptr @_ZN7datalog11udoc_plugin2dmERKNS_18relation_signatureE(ptr noundef nonnull align 8 dereferenceable(129) %8, ptr noundef nonnull align 8 dereferenceable(8) %17)
  %19 = call noundef ptr @_ZN11doc_manager9allocateXEv(ptr noundef nonnull align 8 dereferenceable(1080) %18)
  call void @_ZN10union_bvecI11doc_manager3docE9push_backEPS1_(ptr noundef nonnull align 8 dereferenceable(80) %16, ptr noundef %19)
  %20 = load ptr, ptr %7, align 8, !tbaa !3
  call void @llvm.lifetime.end.p0(i64 8, ptr %7) #3
  ret ptr %20
}