; Function Attrs: mustprogress uwtable
define hidden noundef ptr @_ZN7datalog11udoc_plugin7mk_fullEP9func_declRKNS_18relation_signatureE(ptr noundef nonnull align 8 dereferenceable(129) %0, ptr readnone captures(none) %1, ptr noundef nonnull align 8 dereferenceable(8) %2) unnamed_addr #3 align 2 {
  %4 = load ptr, ptr %0, align 8, !tbaa !3
  %5 = getelementptr inbounds nuw i8, ptr %4, i64 40
  %6 = load ptr, ptr %5, align 8
  %7 = tail call noundef ptr %6(ptr noundef nonnull align 8 dereferenceable(129) %0, ptr noundef nonnull align 8 dereferenceable(8) %2)
  %.not.i = icmp eq ptr %7, null
  br i1 %.not.i, label %_ZN7datalog11udoc_plugin3getEPNS_13relation_baseE.exit, label %8

8:                                                ; preds = %3
  %9 = tail call ptr @__dynamic_cast(ptr nonnull readonly %7, ptr nonnull @_ZTIN7datalog13relation_baseE, ptr nonnull @_ZTIN7datalog13udoc_relationE, i64 0) #24
  br label %_ZN7datalog11udoc_plugin3getEPNS_13relation_baseE.exit

_ZN7datalog11udoc_plugin3getEPNS_13relation_baseE.exit: ; preds = %3, %8
  %10 = phi ptr [ %9, %8 ], [ null, %3 ]
  br label %11

11:                                               ; preds = %19, %_ZN7datalog11udoc_plugin3getEPNS_13relation_baseE.exit
  %indvars.iv.i.i = phi i64 [ %indvars.iv.next.i.i, %19 ], [ 0, %_ZN7datalog11udoc_plugin3getEPNS_13relation_baseE.exit ]
  %.07.i.i = phi i32 [ %23, %19 ], [ 0, %_ZN7datalog11udoc_plugin3getEPNS_13relation_baseE.exit ]
  %12 = load ptr, ptr %2, align 8, !tbaa !10
  %13 = icmp eq ptr %12, null
  br i1 %13, label %_ZNK6vectorIP4sortLb0EjE4sizeEv.exit.i.i, label %14

14:                                               ; preds = %11
  %15 = getelementptr inbounds i8, ptr %12, i64 -4
  %16 = load i32, ptr %15, align 4, !tbaa !14
  %17 = zext i32 %16 to i64
  br label %_ZNK6vectorIP4sortLb0EjE4sizeEv.exit.i.i

_ZNK6vectorIP4sortLb0EjE4sizeEv.exit.i.i:         ; preds = %14, %11
  %.0.i.i.i = phi i64 [ %17, %14 ], [ 0, %11 ]
  %18 = icmp samesign ult i64 %indvars.iv.i.i, %.0.i.i.i
  br i1 %18, label %19, label %_ZN7datalog11udoc_plugin2dmERKNS_18relation_signatureE.exit

19:                                               ; preds = %_ZNK6vectorIP4sortLb0EjE4sizeEv.exit.i.i
  %20 = getelementptr inbounds nuw ptr, ptr %12, i64 %indvars.iv.i.i
  %21 = load ptr, ptr %20, align 8, !tbaa !26
  %22 = tail call noundef i32 @_ZNK7datalog11udoc_plugin13num_sort_bitsEP4sort(ptr noundef nonnull align 8 dereferenceable(129) %0, ptr noundef %21)
  %23 = add i32 %22, %.07.i.i
  %indvars.iv.next.i.i = add nuw nsw i64 %indvars.iv.i.i, 1
  br label %11, !llvm.loop !28

_ZN7datalog11udoc_plugin2dmERKNS_18relation_signatureE.exit: ; preds = %_ZNK6vectorIP4sortLb0EjE4sizeEv.exit.i.i
  %24 = getelementptr inbounds nuw i8, ptr %10, i64 40
  %25 = tail call noundef nonnull align 8 dereferenceable(1080) ptr @_ZN7datalog11udoc_plugin2dmEj(ptr noundef nonnull align 8 dereferenceable(129) %0, i32 noundef %.07.i.i)
  %26 = tail call noundef ptr @_ZN11doc_manager9allocateXEv(ptr noundef nonnull align 8 dereferenceable(1080) %25)
  %27 = getelementptr inbounds nuw i8, ptr %10, i64 48
  %28 = load i32, ptr %27, align 8, !tbaa !35
  %29 = getelementptr inbounds nuw i8, ptr %10, i64 52
  %30 = load i32, ptr %29, align 4, !tbaa !36
  %.not.i.i = icmp ult i32 %28, %30
  br i1 %.not.i.i, label %._crit_edge.i.i, label %31

._crit_edge.i.i:                                  ; preds = %_ZN7datalog11udoc_plugin2dmERKNS_18relation_signatureE.exit
  %.pre.i.i = load ptr, ptr %24, align 8, !tbaa !32
  br label %_ZN10union_bvecI11doc_manager3docE9push_backEPS1_.exit

31:                                               ; preds = %_ZN7datalog11udoc_plugin2dmERKNS_18relation_signatureE.exit
  %32 = shl i32 %30, 1
  %33 = zext i32 %32 to i64
  %34 = shl nuw nsw i64 %33, 3
  %35 = tail call noalias noundef ptr @_ZN6memory8allocateEm(i64 noundef %34)
  %36 = load i32, ptr %27, align 8, !tbaa !35
  %.not.i.i.i = icmp eq i32 %36, 0
  %.pre.i.i.i = load ptr, ptr %24, align 8, !tbaa !32
  br i1 %.not.i.i.i, label %._crit_edge.i.i.i, label %.lr.ph.i.i.i

.lr.ph.i.i.i:                                     ; preds = %31
  %wide.trip.count.i.i.i = zext i32 %36 to i64
  br label %40

._crit_edge.i.i.i:                                ; preds = %40, %31
  %37 = getelementptr inbounds nuw i8, ptr %10, i64 56
  %.not.i.i.i.i = icmp eq ptr %.pre.i.i.i, %37
  %38 = icmp eq ptr %.pre.i.i.i, null
  %or.cond.i.i.i.i = or i1 %.not.i.i.i.i, %38
  br i1 %or.cond.i.i.i.i, label %_ZN6bufferIP3docLb0ELj8EE6expandEv.exit.i.i, label %39

39:                                               ; preds = %._crit_edge.i.i.i
  tail call void @_ZN6memory10deallocateEPv(ptr noundef nonnull %.pre.i.i.i)
  %.pre2.pre.i.i = load i32, ptr %27, align 8, !tbaa !35
  br label %_ZN6bufferIP3docLb0ELj8EE6expandEv.exit.i.i

40:                                               ; preds = %40, %.lr.ph.i.i.i
  %indvars.iv.i.i.i = phi i64 [ 0, %.lr.ph.i.i.i ], [ %indvars.iv.next.i.i.i, %40 ]
  %41 = getelementptr inbounds nuw ptr, ptr %35, i64 %indvars.iv.i.i.i
  %42 = getelementptr inbounds nuw ptr, ptr %.pre.i.i.i, i64 %indvars.iv.i.i.i
  %43 = load ptr, ptr %42, align 8, !tbaa !148
  store ptr %43, ptr %41, align 8, !tbaa !148
  %indvars.iv.next.i.i.i = add nuw nsw i64 %indvars.iv.i.i.i, 1
  %exitcond.not.i.i.i = icmp eq i64 %indvars.iv.next.i.i.i, %wide.trip.count.i.i.i
  br i1 %exitcond.not.i.i.i, label %._crit_edge.i.i.i, label %40, !llvm.loop !183

_ZN6bufferIP3docLb0ELj8EE6expandEv.exit.i.i:      ; preds = %39, %._crit_edge.i.i.i
  %.pre2.i.i = phi i32 [ %36, %._crit_edge.i.i.i ], [ %.pre2.pre.i.i, %39 ]
  store ptr %35, ptr %24, align 8, !tbaa !32
  store i32 %32, ptr %29, align 4, !tbaa !36
  br label %_ZN10union_bvecI11doc_manager3docE9push_backEPS1_.exit

_ZN10union_bvecI11doc_manager3docE9push_backEPS1_.exit: ; preds = %._crit_edge.i.i, %_ZN6bufferIP3docLb0ELj8EE6expandEv.exit.i.i
  %44 = phi i32 [ %28, %._crit_edge.i.i ], [ %.pre2.i.i, %_ZN6bufferIP3docLb0ELj8EE6expandEv.exit.i.i ]
  %45 = phi ptr [ %.pre.i.i, %._crit_edge.i.i ], [ %35, %_ZN6bufferIP3docLb0ELj8EE6expandEv.exit.i.i ]
  %46 = zext i32 %44 to i64
  %47 = getelementptr inbounds nuw ptr, ptr %45, i64 %46
  store ptr %26, ptr %47, align 8, !tbaa !148
  %48 = add i32 %44, 1
  store i32 %48, ptr %27, align 8, !tbaa !35
  ret ptr %10
}